target datalayout = "e-m:e-p270:32:32-p271:32:32-p272:64:64-i64:64-i128:128-f80:128-n8:16:32:64-S128"
target triple = "x86_64-pc-linux-gnu"

%struct._asn1_ctx_t = type { i32, i32, i8, ptr, ptr, ptr, ptr, ptr, %struct.anon, %struct.anon.2, %struct.anon.3, ptr }
%struct.anon = type { i32, i8, i8, i8, ptr, ptr, i32, i32, ptr, ptr, ptr, %union.anon }
%union.anon = type { %struct.anon.0 }
%struct.anon.0 = type { ptr }
%struct.anon.2 = type { ptr, ptr, ptr }
%struct.anon.3 = type { i32, i8, ptr, i32, i32, ptr, ptr, ptr, %union.anon.4 }
%union.anon.4 = type { %struct.anon.5 }
%struct.anon.5 = type { ptr }
%struct._packet_info = type { ptr, ptr, i32, i32, %struct.nstime_t, %struct.nstime_t, %struct.nstime_t, i8, ptr, ptr, ptr, ptr, %struct._address, %struct._address, %struct._address, %struct._address, %struct._address, %struct._address, i32, ptr, i8, [3 x i8], %struct.anon.7, i32, i32, i32, i32, ptr, i8, ptr, ptr, i16, i16, i32, i32, i16, i32, i32, ptr, ptr, ptr, i8, i8, i16, i16, i16, i32, i16, i16, ptr, ptr, ptr, ptr, ptr, i32, i32 }
%struct.nstime_t = type { i64, i32 }
%struct._address = type { i32, i32, ptr, ptr }
%struct.anon.7 = type { i8, [3 x i8] }

@.str.43 = private unnamed_addr constant [1 x i8] zeroinitializer, align 1

; Function Attrs: null_pointer_is_valid sspstrong uwtable
define internal i32 @dissect_ber_any_oid_str(i1 noundef zeroext %0, ptr noundef %1, ptr noundef %2, ptr noundef %3, i32 noundef %4, i32 noundef %5, ptr noundef %6, i1 noundef zeroext %7) #0 {
  %9 = alloca i8, align 1
  %10 = alloca ptr, align 8
  %11 = alloca ptr, align 8
  %12 = alloca ptr, align 8
  %13 = alloca i32, align 4
  %14 = alloca i32, align 4
  %15 = alloca ptr, align 8
  %16 = alloca i8, align 1
  %17 = alloca ptr, align 8
  %18 = alloca i32, align 4
  %19 = zext i1 %0 to i8
  store i8 %19, ptr %9, align 1
  store ptr %1, ptr %10, align 8
  store ptr %2, ptr %11, align 8
  store ptr %3, ptr %12, align 8
  store i32 %4, ptr %13, align 4
  store i32 %5, ptr %14, align 4
  store ptr %6, ptr %15, align 8
  %20 = zext i1 %7 to i8
  store i8 %20, ptr %16, align 1
  call void @llvm.lifetime.start.p0(i64 8, ptr %17) #12
  store ptr null, ptr %17, align 8
  call void @llvm.lifetime.start.p0(i64 4, ptr %18) #12
  %21 = load i8, ptr %9, align 1, !range !6, !noundef !7
  %22 = trunc i8 %21 to i1
  %23 = load ptr, ptr %10, align 8
  %24 = load ptr, ptr %11, align 8
  %25 = load ptr, ptr %12, align 8
  %26 = load i32, ptr %13, align 4
  %27 = load i32, ptr %14, align 4
  %28 = load ptr, ptr %15, align 8
  %29 = icmp ne ptr %28, null
  br i1 %29, label %30, label %31

30:                                               ; preds = %8
  br label %32

31:                                               ; preds = %8
  br label %32

32:                                               ; preds = %31, %30
  %33 = phi ptr [ %17, %30 ], [ null, %31 ]
  %34 = load i8, ptr %16, align 1, !range !6, !noundef !7
  %35 = trunc i8 %34 to i1
  %36 = call i32 @dissect_ber_any_oid(i1 noundef zeroext %22, ptr noundef %23, ptr noundef %24, ptr noundef %25, i32 noundef %26, i32 noundef %27, ptr noundef %33, i1 noundef zeroext %35)
  store i32 %36, ptr %13, align 4
  %37 = load ptr, ptr %15, align 8
  %38 = icmp ne ptr %37, null
  br i1 %38, label %39, label %61

39:                                               ; preds = %32
  %40 = load ptr, ptr %17, align 8
  %41 = icmp ne ptr %40, null
  br i1 %41, label %42, label %58

42:                                               ; preds = %39
  %43 = load ptr, ptr %17, align 8
  %44 = call i32 @tvb_reported_length(ptr noundef %43)
  store i32 %44, ptr %18, align 4
  %45 = icmp ne i32 %44, 0
  br i1 %45, label %46, label %58

46:                                               ; preds = %42
  %47 = load ptr, ptr %10, align 8
  %48 = getelementptr inbounds nuw %struct._asn1_ctx_t, ptr %47, i32 0, i32 3
  %49 = load ptr, ptr %48, align 8
  %50 = getelementptr inbounds nuw %struct._packet_info, ptr %49, i32 0, i32 51
  %51 = load ptr, ptr %50, align 8
  %52 = load ptr, ptr %17, align 8
  %53 = load i32, ptr %18, align 4
  %54 = call ptr @tvb_get_ptr(ptr noundef %52, i32 noundef 0, i32 noundef %53)
  %55 = load i32, ptr %18, align 4
  %56 = call ptr @oid_encoded2string(ptr noundef %51, ptr noundef %54, i32 noundef %55)
  %57 = load ptr, ptr %15, align 8
  store ptr %56, ptr %57, align 8
  br label %60

58:                                               ; preds = %42, %39
  %59 = load ptr, ptr %15, align 8
  store ptr @.str.43, ptr %59, align 8
  br label %60

60:                                               ; preds = %58, %46
  br label %61

61:                                               ; preds = %60, %32
  %62 = load i32, ptr %13, align 4
  call void @llvm.lifetime.end.p0(i64 4, ptr %18) #12
  call void @llvm.lifetime.end.p0(i64 8, ptr %17) #12
  ret i32 %62
}

; Function Attrs: null_pointer_is_valid sspstrong uwtable
define i32 @dissect_ber_object_identifier_str(i1 noundef zeroext %0, ptr noundef %1, ptr noundef %2, ptr noundef %3, i32 noundef %4, i32 noundef %5, ptr noundef %6) #0 {
  %8 = alloca i8, align 1
  %9 = alloca ptr, align 8
  %10 = alloca ptr, align 8
  %11 = alloca ptr, align 8
  %12 = alloca i32, align 4
  %13 = alloca i32, align 4
  %14 = alloca ptr, align 8
  %15 = zext i1 %0 to i8
  store i8 %15, ptr %8, align 1
  store ptr %1, ptr %9, align 8
  store ptr %2, ptr %10, align 8
  store ptr %3, ptr %11, align 8
  store i32 %4, ptr %12, align 4
  store i32 %5, ptr %13, align 4
  store ptr %6, ptr %14, align 8
  %16 = load i8, ptr %8, align 1, !range !6, !noundef !7
  %17 = trunc i8 %16 to i1
  %18 = load ptr, ptr %9, align 8
  %19 = load ptr, ptr %10, align 8
  %20 = load ptr, ptr %11, align 8
  %21 = load i32, ptr %12, align 4
  %22 = load i32, ptr %13, align 4
  %23 = load ptr, ptr %14, align 8
  %24 = call i32 @dissect_ber_any_oid_str(i1 noundef zeroext %17, ptr noundef %18, ptr noundef %19, ptr noundef %20, i32 noundef %21, i32 noundef %22, ptr noundef %23, i1 noundef zeroext true)
  ret i32 %24
}