; Function Attrs: null_pointer_is_valid sspstrong uwtable
define i32 @dissect_ber_object_identifier_str(i1 noundef zeroext %0, ptr noundef captures(none) %1, ptr noundef %2, ptr noundef %3, i32 noundef %4, i32 noundef %5, ptr noundef writeonly captures(address_is_null) %6) local_unnamed_addr #0 {
  %8 = alloca ptr, align 8
  call void @llvm.lifetime.start.p0(i64 8, ptr nonnull %8) #14
  store ptr null, ptr %8, align 8
  %.not.i = icmp eq ptr %6, null
  %..i = select i1 %.not.i, ptr null, ptr %8
  %9 = call fastcc i32 @dissect_ber_any_oid(i1 noundef zeroext %0, ptr noundef %1, ptr noundef %2, ptr noundef %3, i32 noundef %4, i32 noundef %5, ptr noundef %..i, i1 noundef zeroext true)
  br i1 %.not.i, label %dissect_ber_any_oid_str.exit, label %10

10:                                               ; preds = %7
  %11 = load ptr, ptr %8, align 8
  %.not16.i = icmp eq ptr %11, null
  br i1 %.not16.i, label %.sink.split.i, label %12

12:                                               ; preds = %10
  %13 = call i32 @tvb_reported_length(ptr noundef nonnull %11)
  %.not17.i = icmp eq i32 %13, 0
  br i1 %.not17.i, label %.sink.split.i, label %14

14:                                               ; preds = %12
  %15 = getelementptr inbounds nuw i8, ptr %1, i64 16
  %16 = load ptr, ptr %15, align 8
  %17 = getelementptr inbounds nuw i8, ptr %16, i64 408
  %18 = load ptr, ptr %17, align 8
  %19 = load ptr, ptr %8, align 8
  %20 = call ptr @tvb_get_ptr(ptr noundef %19, i32 noundef 0, i32 noundef %13)
  %21 = call ptr @oid_encoded2string(ptr noundef %18, ptr noundef %20, i32 noundef %13)
  br label %.sink.split.i

.sink.split.i:                                    ; preds = %14, %12, %10
  %.sink.i = phi ptr [ %21, %14 ], [ @.str.43, %12 ], [ @.str.43, %10 ]
  store ptr %.sink.i, ptr %6, align 8
  br label %dissect_ber_any_oid_str.exit

dissect_ber_any_oid_str.exit:                     ; preds = %7, %.sink.split.i
  call void @llvm.lifetime.end.p0(i64 8, ptr nonnull %8) #14
  ret i32 %9
}